target datalayout = "e-m:e-p270:32:32-p271:32:32-p272:64:64-i64:64-i128:128-f80:128-n8:16:32:64-S128"
target triple = "x86_64-pc-linux-gnu"

; Function Attrs: mustprogress uwtable
define noundef i32 @_ZN3zmq15socket_poller_t14adjust_timeoutERNS_7clock_tElRmS3_Rb(ptr noundef nonnull align 8 dereferenceable(16) %0, i64 noundef %1, ptr noundef nonnull align 8 dereferenceable(8) %2, ptr noundef nonnull align 8 dereferenceable(8) %3, ptr noundef nonnull align 1 dereferenceable(1) %4) #0 align 2 {
  %6 = alloca i32, align 4
  %7 = alloca ptr, align 8
  %8 = alloca i64, align 8
  %9 = alloca ptr, align 8
  %10 = alloca ptr, align 8
  %11 = alloca ptr, align 8
  store ptr %0, ptr %7, align 8, !tbaa !82
  store i64 %1, ptr %8, align 8, !tbaa !39
  store ptr %2, ptr %9, align 8, !tbaa !84
  store ptr %3, ptr %10, align 8, !tbaa !84
  store ptr %4, ptr %11, align 8, !tbaa !86
  %12 = load i64, ptr %8, align 8, !tbaa !39
  %13 = icmp eq i64 %12, 0
  br i1 %13, label %14, label %15

14:                                               ; preds = %5
  store i32 0, ptr %6, align 4
  br label %47

15:                                               ; preds = %5
  %16 = load i64, ptr %8, align 8, !tbaa !39
  %17 = icmp slt i64 %16, 0
  br i1 %17, label %18, label %25

18:                                               ; preds = %15
  %19 = load ptr, ptr %11, align 8, !tbaa !86
  %20 = load i8, ptr %19, align 1, !tbaa !88, !range !31, !noundef !32
  %21 = trunc i8 %20 to i1
  br i1 %21, label %22, label %24

22:                                               ; preds = %18
  %23 = load ptr, ptr %11, align 8, !tbaa !86
  store i8 0, ptr %23, align 1, !tbaa !88
  br label %24

24:                                               ; preds = %22, %18
  store i32 1, ptr %6, align 4
  br label %47

25:                                               ; preds = %15
  %26 = load ptr, ptr %7, align 8, !tbaa !82
  %27 = call noundef i64 @_ZN3zmq7clock_t6now_msEv(ptr noundef nonnull align 8 dereferenceable(16) %26)
  %28 = load ptr, ptr %9, align 8, !tbaa !84
  store i64 %27, ptr %28, align 8, !tbaa !39
  %29 = load ptr, ptr %11, align 8, !tbaa !86
  %30 = load i8, ptr %29, align 1, !tbaa !88, !range !31, !noundef !32
  %31 = trunc i8 %30 to i1
  br i1 %31, label %32, label %39

32:                                               ; preds = %25
  %33 = load ptr, ptr %9, align 8, !tbaa !84
  %34 = load i64, ptr %33, align 8, !tbaa !39
  %35 = load i64, ptr %8, align 8, !tbaa !39
  %36 = add i64 %34, %35
  %37 = load ptr, ptr %10, align 8, !tbaa !84
  store i64 %36, ptr %37, align 8, !tbaa !39
  %38 = load ptr, ptr %11, align 8, !tbaa !86
  store i8 0, ptr %38, align 1, !tbaa !88
  store i32 1, ptr %6, align 4
  br label %47

39:                                               ; preds = %25
  %40 = load ptr, ptr %9, align 8, !tbaa !84
  %41 = load i64, ptr %40, align 8, !tbaa !39
  %42 = load ptr, ptr %10, align 8, !tbaa !84
  %43 = load i64, ptr %42, align 8, !tbaa !39
  %44 = icmp uge i64 %41, %43
  br i1 %44, label %45, label %46

45:                                               ; preds = %39
  store i32 0, ptr %6, align 4
  br label %47

46:                                               ; preds = %39
  store i32 1, ptr %6, align 4
  br label %47

47:                                               ; preds = %46, %45, %32, %24, %14
  %48 = load i32, ptr %6, align 4
  ret i32 %48
}