; Function Attrs: mustprogress uwtable
define noundef range(i32 0, 2) i32 @_ZN3zmq15socket_poller_t14adjust_timeoutERNS_7clock_tElRmS3_Rb(ptr noundef nonnull align 8 dereferenceable(16) %0, i64 noundef %1, ptr noundef nonnull writeonly align 8 captures(none) dereferenceable(8) %2, ptr noundef nonnull align 8 captures(none) dereferenceable(8) %3, ptr noundef nonnull align 1 captures(none) dereferenceable(1) %4) local_unnamed_addr #0 align 2 {
  %6 = icmp eq i64 %1, 0
  br i1 %6, label %21, label %7

7:                                                ; preds = %5
  %8 = icmp slt i64 %1, 0
  br i1 %8, label %9, label %13

9:                                                ; preds = %7
  %10 = load i8, ptr %4, align 1, !tbaa !64, !range !28, !noundef !29
  %11 = trunc nuw i8 %10 to i1
  br i1 %11, label %12, label %21

12:                                               ; preds = %9
  store i8 0, ptr %4, align 1, !tbaa !64
  br label %21

13:                                               ; preds = %7
  %14 = tail call noundef i64 @_ZN3zmq7clock_t6now_msEv(ptr noundef nonnull align 8 dereferenceable(16) %0)
  store i64 %14, ptr %2, align 8, !tbaa !37
  %15 = load i8, ptr %4, align 1, !tbaa !64, !range !28, !noundef !29
  %16 = trunc nuw i8 %15 to i1
  br i1 %16, label %17, label %19

17:                                               ; preds = %13
  %18 = add i64 %14, %1
  store i64 %18, ptr %3, align 8, !tbaa !37
  store i8 0, ptr %4, align 1, !tbaa !64
  br label %21

19:                                               ; preds = %13
  %20 = load i64, ptr %3, align 8, !tbaa !37
  %.not = icmp ult i64 %14, %20
  %. = zext i1 %.not to i32
  br label %21

21:                                               ; preds = %19, %9, %12, %5, %17
  %.0 = phi i32 [ 1, %17 ], [ 0, %5 ], [ 1, %12 ], [ 1, %9 ], [ %., %19 ]
  ret i32 %.0
}